target datalayout = "e-m:e-p270:32:32-p271:32:32-p272:64:64-i64:64-i128:128-f80:128-n8:16:32:64-S128"
target triple = "x86_64-pc-linux-gnu"

%class.IntegerTypeMultiplication.0 = type <{ i64, i64, i64, i64, i16, i16, [4 x i8] }>

; Function Attrs: mustprogress nounwind uwtable
define linkonce_odr hidden noundef signext i16 @_Z4MAX2IsET_S0_S0_(i16 noundef signext %0, i16 noundef signext %1) #1 comdat {
  %3 = alloca i16, align 2
  %4 = alloca i16, align 2
  store i16 %0, ptr %3, align 2
  store i16 %1, ptr %4, align 2
  %5 = load i16, ptr %3, align 2
  %6 = sext i16 %5 to i32
  %7 = load i16, ptr %4, align 2
  %8 = sext i16 %7 to i32
  %9 = icmp sgt i32 %6, %8
  br i1 %9, label %10, label %12

10:                                               ; preds = %2
  %11 = load i16, ptr %3, align 2
  br label %14

12:                                               ; preds = %2
  %13 = load i16, ptr %4, align 2
  br label %14

14:                                               ; preds = %12, %10
  %15 = phi i16 [ %11, %10 ], [ %13, %12 ]
  ret i16 %15
}

; Function Attrs: mustprogress nounwind uwtable
define hidden noundef ptr @_ZNK25IntegerTypeMultiplicationIlE11create_typeEll(ptr noundef nonnull align 8 dereferenceable(36) %0, i64 noundef %1, i64 noundef %2) #1 align 2 {
  %4 = alloca ptr, align 8
  %5 = alloca i64, align 8
  %6 = alloca i64, align 8
  store ptr %0, ptr %4, align 8
  store i64 %1, ptr %5, align 8
  store i64 %2, ptr %6, align 8
  %7 = load ptr, ptr %4, align 8
  %8 = load i64, ptr %5, align 8
  %9 = load i64, ptr %6, align 8
  %10 = getelementptr inbounds %class.IntegerTypeMultiplication.0, ptr %7, i32 0, i32 4
  %11 = load i16, ptr %10, align 8
  %12 = getelementptr inbounds %class.IntegerTypeMultiplication.0, ptr %7, i32 0, i32 5
  %13 = load i16, ptr %12, align 2
  %14 = call noundef signext i16 @_Z4MAX2IsET_S0_S0_(i16 noundef signext %11, i16 noundef signext %13)
  %15 = sext i16 %14 to i32
  %16 = call noundef ptr @_ZN8TypeLong4makeElli(i64 noundef %8, i64 noundef %9, i32 noundef %15)
  ret ptr %16
}