; Function Attrs: mustprogress nounwind uwtable
define hidden noundef ptr @_ZNK25IntegerTypeMultiplicationIlE11create_typeEll(ptr nocapture noundef nonnull readonly align 8 dereferenceable(36) %0, i64 noundef %1, i64 noundef %2) local_unnamed_addr #0 align 2 {
  %4 = getelementptr inbounds i8, ptr %0, i64 32
  %5 = load i16, ptr %4, align 8
  %6 = getelementptr inbounds i8, ptr %0, i64 34
  %7 = load i16, ptr %6, align 2
  %8 = tail call noundef i16 @llvm.smax.i16(i16 %5, i16 %7)
  %9 = sext i16 %8 to i32
  %10 = tail call noundef ptr @_ZN8TypeLong4makeElli(i64 noundef %1, i64 noundef %2, i32 noundef %9) #10
  ret ptr %10
}